target datalayout = "e-m:e-p270:32:32-p271:32:32-p272:64:64-i64:64-i128:128-f80:128-n8:16:32:64-S128"
target triple = "x86_64-pc-linux-gnu"

%struct._capture_file = type { ptr, i32, ptr, ptr, i8, i8, i8, i64, i16, i32, i32, i32, ptr, i32, i64, i32, i32, i32, i32, i8, i32, %struct.nstime_t, i32, ptr, ptr, ptr, i8, i8, i32, ptr, i8, i8, i8, i8, i8, i32, i32, i8, ptr, i32, i32, i8, %struct.packet_provider_data, i32, i32, %struct.epan_column_info, ptr, ptr, ptr, %struct.wtap_rec, %struct.Buffer, ptr, i64, i32 }
%struct.nstime_t = type { i64, i32 }
%struct.packet_provider_data = type { ptr, ptr, ptr, ptr, ptr, ptr }
%struct.epan_column_info = type { ptr, i32, ptr, ptr, ptr, %struct.col_expr_t, i8, ptr }
%struct.col_expr_t = type { ptr, ptr }
%struct.wtap_rec = type { i32, i32, i32, %struct.nstime_t, i32, %struct.nstime_t, i8, %union.anon, ptr, i8, %struct.Buffer, %struct.Buffer }
%union.anon = type { %struct.wtap_packet_header }
%struct.wtap_packet_header = type { i32, i32, i32, i32, %union.wtap_pseudo_header }
%union.wtap_pseudo_header = type { %struct.erf_mc_phdr }
%struct.erf_mc_phdr = type { %struct.erf_phdr, [16 x %struct.erf_ehdr], %union.anon.1 }
%struct.erf_phdr = type { i64, i8, i8, i16, i16, i16 }
%struct.erf_ehdr = type { i64 }
%union.anon.1 = type { i32 }
%struct.Buffer = type { ptr, i64, i64, i64 }

; Function Attrs: null_pointer_is_valid sspstrong uwtable
define hidden zeroext i1 @cf_set_modified_block(ptr noundef %0, ptr noundef %1, ptr noundef %2) #1 {
  %4 = alloca i1, align 1
  %5 = alloca ptr, align 8
  %6 = alloca ptr, align 8
  %7 = alloca ptr, align 8
  %8 = alloca ptr, align 8
  %9 = alloca i32, align 4
  store ptr %0, ptr %5, align 8
  store ptr %1, ptr %6, align 8
  store ptr %2, ptr %7, align 8
  call void @llvm.lifetime.start.p0(i64 8, ptr %8) #19
  %10 = load ptr, ptr %5, align 8
  %11 = load ptr, ptr %6, align 8
  %12 = call ptr @cf_get_packet_block(ptr noundef %10, ptr noundef %11)
  store ptr %12, ptr %8, align 8
  %13 = load ptr, ptr %8, align 8
  %14 = load ptr, ptr %7, align 8
  %15 = icmp eq ptr %13, %14
  br i1 %15, label %16, label %17

16:                                               ; preds = %3
  store i1 false, ptr %4, align 1
  store i32 1, ptr %9, align 4
  br label %51

17:                                               ; preds = %3
  %18 = load ptr, ptr %8, align 8
  %19 = icmp ne ptr %18, null
  br i1 %19, label %20, label %28

20:                                               ; preds = %17
  %21 = load ptr, ptr %8, align 8
  %22 = call i32 @wtap_block_count_option(ptr noundef %21, i32 noundef 1)
  %23 = zext i32 %22 to i64
  %24 = load ptr, ptr %5, align 8
  %25 = getelementptr inbounds nuw %struct._capture_file, ptr %24, i32 0, i32 14
  %26 = load i64, ptr %25, align 8
  %27 = sub i64 %26, %23
  store i64 %27, ptr %25, align 8
  br label %28

28:                                               ; preds = %20, %17
  %29 = load ptr, ptr %7, align 8
  %30 = icmp ne ptr %29, null
  br i1 %30, label %31, label %39

31:                                               ; preds = %28
  %32 = load ptr, ptr %7, align 8
  %33 = call i32 @wtap_block_count_option(ptr noundef %32, i32 noundef 1)
  %34 = zext i32 %33 to i64
  %35 = load ptr, ptr %5, align 8
  %36 = getelementptr inbounds nuw %struct._capture_file, ptr %35, i32 0, i32 14
  %37 = load i64, ptr %36, align 8
  %38 = add i64 %37, %34
  store i64 %38, ptr %36, align 8
  br label %39

39:                                               ; preds = %31, %28
  %40 = load ptr, ptr %5, align 8
  %41 = getelementptr inbounds nuw %struct._capture_file, ptr %40, i32 0, i32 42
  %42 = load ptr, ptr %6, align 8
  %43 = load ptr, ptr %7, align 8
  call void @cap_file_provider_set_modified_block(ptr noundef %41, ptr noundef %42, ptr noundef %43)
  %44 = load ptr, ptr %5, align 8
  %45 = getelementptr inbounds nuw %struct._capture_file, ptr %44, i32 0, i32 14
  %46 = load i64, ptr %45, align 8
  call void @expert_update_comment_count(i64 noundef %46)
  br label %47

47:                                               ; preds = %39
  %48 = load ptr, ptr %8, align 8
  call void @wtap_block_unref(ptr noundef %48)
  %49 = load ptr, ptr %5, align 8
  %50 = getelementptr inbounds nuw %struct._capture_file, ptr %49, i32 0, i32 5
  store i8 1, ptr %50, align 1
  store i1 true, ptr %4, align 1
  store i32 1, ptr %9, align 4
  br label %51

51:                                               ; preds = %47, %16
  call void @llvm.lifetime.end.p0(i64 8, ptr %8) #19
  %52 = load i1, ptr %4, align 1
  ret i1 %52
}