; Function Attrs: null_pointer_is_valid sspstrong uwtable
define hidden noundef zeroext i1 @cf_set_modified_block(ptr noundef %0, ptr noundef %1, ptr noundef %2) local_unnamed_addr #1 {
  %4 = tail call ptr @cf_get_packet_block(ptr noundef %0, ptr noundef %1)
  %5 = icmp ne ptr %4, %2
  br i1 %5, label %6, label %25

6:                                                ; preds = %3
  %.not = icmp eq ptr %4, null
  br i1 %.not, label %13, label %7

7:                                                ; preds = %6
  %8 = tail call i32 @wtap_block_count_option(ptr noundef nonnull %4, i32 noundef 1)
  %9 = zext i32 %8 to i64
  %10 = getelementptr inbounds nuw i8, ptr %0, i64 80
  %11 = load i64, ptr %10, align 8
  %12 = sub i64 %11, %9
  store i64 %12, ptr %10, align 8
  br label %13

13:                                               ; preds = %7, %6
  %.not19 = icmp eq ptr %2, null
  br i1 %.not19, label %20, label %14

14:                                               ; preds = %13
  %15 = tail call i32 @wtap_block_count_option(ptr noundef nonnull %2, i32 noundef 1)
  %16 = zext i32 %15 to i64
  %17 = getelementptr inbounds nuw i8, ptr %0, i64 80
  %18 = load i64, ptr %17, align 8
  %19 = add i64 %18, %16
  store i64 %19, ptr %17, align 8
  br label %20

20:                                               ; preds = %14, %13
  %21 = getelementptr inbounds nuw i8, ptr %0, i64 224
  tail call void @cap_file_provider_set_modified_block(ptr noundef nonnull %21, ptr noundef %1, ptr noundef %2)
  %22 = getelementptr inbounds nuw i8, ptr %0, i64 80
  %23 = load i64, ptr %22, align 8
  tail call void @expert_update_comment_count(i64 noundef %23)
  tail call void @wtap_block_unref(ptr noundef %4)
  %24 = getelementptr inbounds nuw i8, ptr %0, i64 33
  store i8 1, ptr %24, align 1
  br label %25

25:                                               ; preds = %3, %20
  ret i1 %5
}